target datalayout = "e-m:e-p270:32:32-p271:32:32-p272:64:64-i64:64-i128:128-f80:128-n8:16:32:64-S128"
target triple = "x86_64-pc-linux-gnu"

@.str = private unnamed_addr constant [34 x i8] c"../openssl/test/servername_test.c\00", align 1
@.str.1 = private unnamed_addr constant [28 x i8] c"Error parsing test options\0A\00", align 1
@.str.2 = private unnamed_addr constant [28 x i8] c"cert = test_get_argument(0)\00", align 1
@cert = internal global ptr null, align 8
@.str.3 = private unnamed_addr constant [31 x i8] c"privkey = test_get_argument(1)\00", align 1
@privkey = internal global ptr null, align 8
@.str.4 = private unnamed_addr constant [16 x i8] c"test_servername\00", align 1

; Function Attrs: nounwind uwtable
define dso_local i32 @setup_tests() #0 {
  %1 = alloca i32, align 4
  %2 = call i32 @test_skip_common_options()
  %3 = icmp ne i32 %2, 0
  br i1 %3, label %5, label %4

4:                                                ; preds = %0
  call void (ptr, i32, ptr, ...) @test_error(ptr noundef @.str, i32 noundef 258, ptr noundef @.str.1)
  store i32 0, ptr %1, align 4
  br label %15

5:                                                ; preds = %0
  %6 = call ptr @test_get_argument(i64 noundef 0)
  store ptr %6, ptr @cert, align 8, !tbaa !4
  %7 = call i32 @test_ptr(ptr noundef @.str, i32 noundef 262, ptr noundef @.str.2, ptr noundef %6)
  %8 = icmp ne i32 %7, 0
  br i1 %8, label %9, label %13

9:                                                ; preds = %5
  %10 = call ptr @test_get_argument(i64 noundef 1)
  store ptr %10, ptr @privkey, align 8, !tbaa !4
  %11 = call i32 @test_ptr(ptr noundef @.str, i32 noundef 263, ptr noundef @.str.3, ptr noundef %10)
  %12 = icmp ne i32 %11, 0
  br i1 %12, label %14, label %13

13:                                               ; preds = %9, %5
  store i32 0, ptr %1, align 4
  br label %15

14:                                               ; preds = %9
  call void @add_all_tests(ptr noundef @.str.4, ptr noundef @test_servername, i32 noundef 3, i32 noundef 1)
  store i32 1, ptr %1, align 4
  br label %15

15:                                               ; preds = %14, %13, %4
  %16 = load i32, ptr %1, align 4
  ret i32 %16
}