; Function Attrs: nounwind uwtable
define dso_local range(i32 0, 2) i32 @setup_tests() local_unnamed_addr #0 {
  %1 = tail call i32 @test_skip_common_options() #5
  %.not = icmp eq i32 %1, 0
  br i1 %.not, label %2, label %3

2:                                                ; preds = %0
  tail call void (ptr, i32, ptr, ...) @test_error(ptr noundef nonnull @.str, i32 noundef 258, ptr noundef nonnull @.str.1) #5
  br label %10

3:                                                ; preds = %0
  %4 = tail call ptr @test_get_argument(i64 noundef 0) #5
  store ptr %4, ptr @cert, align 8, !tbaa !4
  %5 = tail call i32 @test_ptr(ptr noundef nonnull @.str, i32 noundef 262, ptr noundef nonnull @.str.2, ptr noundef %4) #5
  %.not1 = icmp eq i32 %5, 0
  br i1 %.not1, label %10, label %6

6:                                                ; preds = %3
  %7 = tail call ptr @test_get_argument(i64 noundef 1) #5
  store ptr %7, ptr @privkey, align 8, !tbaa !4
  %8 = tail call i32 @test_ptr(ptr noundef nonnull @.str, i32 noundef 263, ptr noundef nonnull @.str.3, ptr noundef %7) #5
  %.not2 = icmp eq i32 %8, 0
  br i1 %.not2, label %10, label %9

9:                                                ; preds = %6
  tail call void @add_all_tests(ptr noundef nonnull @.str.4, ptr noundef nonnull @test_servername, i32 noundef 3, i32 noundef 1) #5
  br label %10

10:                                               ; preds = %3, %6, %9, %2
  %.0 = phi i32 [ 1, %9 ], [ 0, %2 ], [ 0, %6 ], [ 0, %3 ]
  ret i32 %.0
}